target datalayout = "e-m:e-p270:32:32-p271:32:32-p272:64:64-i64:64-i128:128-f80:128-n8:16:32:64-S128"
target triple = "x86_64-pc-linux-gnu"

%struct.parser_state_t = type { ptr, double, ptr }
%struct.token_t = type { i32, %union.token_data_t }
%union.token_data_t = type { double }

@.str = private unnamed_addr constant [2 x i8] c",\00", align 1

; Function Attrs: nounwind uwtable
define internal double @_parse_additive_expression(ptr noundef %0) #0 {
  %2 = alloca double, align 8
  %3 = alloca ptr, align 8
  %4 = alloca double, align 8
  %5 = alloca i32, align 4
  %6 = alloca i32, align 4
  %7 = alloca double, align 8
  store ptr %0, ptr %3, align 8, !tbaa !14
  %8 = load ptr, ptr %3, align 8, !tbaa !14
  %9 = getelementptr inbounds nuw %struct.parser_state_t, ptr %8, i32 0, i32 2
  %10 = load ptr, ptr %9, align 8, !tbaa !20
  %11 = icmp ne ptr %10, null
  br i1 %11, label %13, label %12

12:                                               ; preds = %1
  store double 0x7FF8000000000000, ptr %2, align 8
  br label %74

13:                                               ; preds = %1
  call void @llvm.lifetime.start.p0(i64 8, ptr %4) #6
  %14 = load ptr, ptr %3, align 8, !tbaa !14
  %15 = call reassoc nsz arcp contract afn double @_parse_multiplicative_expression(ptr noundef %14)
  store double %15, ptr %4, align 8, !tbaa !6
  br label %16

16:                                               ; preds = %70, %13
  %17 = load ptr, ptr %3, align 8, !tbaa !14
  %18 = getelementptr inbounds nuw %struct.parser_state_t, ptr %17, i32 0, i32 2
  %19 = load ptr, ptr %18, align 8, !tbaa !20
  %20 = icmp ne ptr %19, null
  br i1 %20, label %21, label %28

21:                                               ; preds = %16
  %22 = load ptr, ptr %3, align 8, !tbaa !14
  %23 = getelementptr inbounds nuw %struct.parser_state_t, ptr %22, i32 0, i32 2
  %24 = load ptr, ptr %23, align 8, !tbaa !20
  %25 = getelementptr inbounds nuw %struct.token_t, ptr %24, i32 0, i32 0
  %26 = load i32, ptr %25, align 8, !tbaa !21
  %27 = icmp eq i32 %26, 1
  br label %28

28:                                               ; preds = %21, %16
  %29 = phi i1 [ false, %16 ], [ %27, %21 ]
  br i1 %29, label %30, label %71

30:                                               ; preds = %28
  call void @llvm.lifetime.start.p0(i64 4, ptr %5) #6
  %31 = load ptr, ptr %3, align 8, !tbaa !14
  %32 = getelementptr inbounds nuw %struct.parser_state_t, ptr %31, i32 0, i32 2
  %33 = load ptr, ptr %32, align 8, !tbaa !20
  %34 = getelementptr inbounds nuw %struct.token_t, ptr %33, i32 0, i32 1
  %35 = load i32, ptr %34, align 8, !tbaa !13
  store i32 %35, ptr %5, align 4, !tbaa !25
  %36 = load i32, ptr %5, align 4, !tbaa !25
  %37 = icmp ne i32 %36, 0
  br i1 %37, label %38, label %43

38:                                               ; preds = %30
  %39 = load i32, ptr %5, align 4, !tbaa !25
  %40 = icmp ne i32 %39, 2
  br i1 %40, label %41, label %43

41:                                               ; preds = %38
  %42 = load double, ptr %4, align 8, !tbaa !6
  store double %42, ptr %2, align 8
  store i32 1, ptr %6, align 4
  br label %68

43:                                               ; preds = %38, %30
  %44 = load ptr, ptr %3, align 8, !tbaa !14
  %45 = getelementptr inbounds nuw %struct.parser_state_t, ptr %44, i32 0, i32 2
  %46 = load ptr, ptr %45, align 8, !tbaa !20
  call void @free(ptr noundef %46) #6
  %47 = load ptr, ptr %3, align 8, !tbaa !14
  %48 = call ptr @_get_token(ptr noundef %47)
  %49 = load ptr, ptr %3, align 8, !tbaa !14
  %50 = getelementptr inbounds nuw %struct.parser_state_t, ptr %49, i32 0, i32 2
  store ptr %48, ptr %50, align 8, !tbaa !20
  call void @llvm.lifetime.start.p0(i64 8, ptr %7) #6
  %51 = load ptr, ptr %3, align 8, !tbaa !14
  %52 = call reassoc nsz arcp contract afn double @_parse_multiplicative_expression(ptr noundef %51)
  store double %52, ptr %7, align 8, !tbaa !6
  %53 = load i32, ptr %5, align 4, !tbaa !25
  %54 = icmp eq i32 %53, 0
  br i1 %54, label %55, label %59

55:                                               ; preds = %43
  %56 = load double, ptr %7, align 8, !tbaa !6
  %57 = load double, ptr %4, align 8, !tbaa !6
  %58 = fadd reassoc nsz arcp contract afn double %57, %56
  store double %58, ptr %4, align 8, !tbaa !6
  br label %67

59:                                               ; preds = %43
  %60 = load i32, ptr %5, align 4, !tbaa !25
  %61 = icmp eq i32 %60, 2
  br i1 %61, label %62, label %66

62:                                               ; preds = %59
  %63 = load double, ptr %7, align 8, !tbaa !6
  %64 = load double, ptr %4, align 8, !tbaa !6
  %65 = fsub reassoc nsz arcp contract afn double %64, %63
  store double %65, ptr %4, align 8, !tbaa !6
  br label %66

66:                                               ; preds = %62, %59
  br label %67

67:                                               ; preds = %66, %55
  call void @llvm.lifetime.end.p0(i64 8, ptr %7) #6
  store i32 0, ptr %6, align 4
  br label %68

68:                                               ; preds = %67, %41
  call void @llvm.lifetime.end.p0(i64 4, ptr %5) #6
  %69 = load i32, ptr %6, align 4
  switch i32 %69, label %73 [
    i32 0, label %70
  ]

70:                                               ; preds = %68
  br label %16

71:                                               ; preds = %28
  %72 = load double, ptr %4, align 8, !tbaa !6
  store double %72, ptr %2, align 8
  store i32 1, ptr %6, align 4
  br label %73

73:                                               ; preds = %71, %68
  call void @llvm.lifetime.end.p0(i64 8, ptr %4) #6
  br label %74

74:                                               ; preds = %73, %12
  %75 = load double, ptr %2, align 8
  ret double %75
}

; Function Attrs: nounwind uwtable
define internal double @_parse_expression(ptr noundef %0) #0 {
  %2 = alloca ptr, align 8
  store ptr %0, ptr %2, align 8, !tbaa !14
  %3 = load ptr, ptr %2, align 8, !tbaa !14
  %4 = call reassoc nsz arcp contract afn double @_parse_additive_expression(ptr noundef %3)
  ret double %4
}

; Function Attrs: nounwind uwtable
define double @dt_calculator_solve(double noundef %0, ptr noundef %1) #0 {
  %3 = alloca double, align 8
  %4 = alloca double, align 8
  %5 = alloca ptr, align 8
  %6 = alloca ptr, align 8
  %7 = alloca ptr, align 8
  %8 = alloca double, align 8
  store double %0, ptr %4, align 8, !tbaa !6
  store ptr %1, ptr %5, align 8, !tbaa !10
  %9 = load ptr, ptr %5, align 8, !tbaa !10
  %10 = icmp eq ptr %9, null
  br i1 %10, label %16, label %11

11:                                               ; preds = %2
  %12 = load ptr, ptr %5, align 8, !tbaa !10
  %13 = load i8, ptr %12, align 1, !tbaa !13
  %14 = sext i8 %13 to i32
  %15 = icmp eq i32 %14, 0
  br i1 %15, label %16, label %17

16:                                               ; preds = %11, %2
  store double 0x7FF8000000000000, ptr %3, align 8
  br label %73

17:                                               ; preds = %11
  call void @llvm.lifetime.start.p0(i64 8, ptr %6) #6
  %18 = load ptr, ptr %5, align 8, !tbaa !10
  %19 = call noalias ptr @g_strdup(ptr noundef %18)
  store ptr %19, ptr %6, align 8, !tbaa !10
  call void @llvm.lifetime.start.p0(i64 8, ptr %7) #6
  %20 = call noalias ptr @malloc(i64 noundef 24) #7
  store ptr %20, ptr %7, align 8, !tbaa !14
  %21 = load ptr, ptr %6, align 8, !tbaa !10
  %22 = call ptr @g_strdelimit(ptr noundef %21, ptr noundef @.str, i8 noundef signext 46)
  %23 = load ptr, ptr %7, align 8, !tbaa !14
  %24 = getelementptr inbounds nuw %struct.parser_state_t, ptr %23, i32 0, i32 0
  store ptr %22, ptr %24, align 8, !tbaa !16
  %25 = load double, ptr %4, align 8, !tbaa !6
  %26 = load ptr, ptr %7, align 8, !tbaa !14
  %27 = getelementptr inbounds nuw %struct.parser_state_t, ptr %26, i32 0, i32 1
  store double %25, ptr %27, align 8, !tbaa !19
  %28 = load ptr, ptr %7, align 8, !tbaa !14
  %29 = call ptr @_get_token(ptr noundef %28)
  %30 = load ptr, ptr %7, align 8, !tbaa !14
  %31 = getelementptr inbounds nuw %struct.parser_state_t, ptr %30, i32 0, i32 2
  store ptr %29, ptr %31, align 8, !tbaa !20
  call void @llvm.lifetime.start.p0(i64 8, ptr %8) #6
  store double 0.000000e+00, ptr %8, align 8, !tbaa !6
  %32 = load ptr, ptr %7, align 8, !tbaa !14
  %33 = getelementptr inbounds nuw %struct.parser_state_t, ptr %32, i32 0, i32 2
  %34 = load ptr, ptr %33, align 8, !tbaa !20
  %35 = icmp ne ptr %34, null
  br i1 %35, label %36, label %57

36:                                               ; preds = %17
  %37 = load ptr, ptr %7, align 8, !tbaa !14
  %38 = getelementptr inbounds nuw %struct.parser_state_t, ptr %37, i32 0, i32 2
  %39 = load ptr, ptr %38, align 8, !tbaa !20
  %40 = getelementptr inbounds nuw %struct.token_t, ptr %39, i32 0, i32 0
  %41 = load i32, ptr %40, align 8, !tbaa !21
  %42 = icmp eq i32 %41, 1
  br i1 %42, label %43, label %57

43:                                               ; preds = %36
  %44 = load ptr, ptr %7, align 8, !tbaa !14
  %45 = getelementptr inbounds nuw %struct.parser_state_t, ptr %44, i32 0, i32 2
  %46 = load ptr, ptr %45, align 8, !tbaa !20
  %47 = getelementptr inbounds nuw %struct.token_t, ptr %46, i32 0, i32 1
  %48 = load i32, ptr %47, align 8, !tbaa !13
  switch i32 %48, label %55 [
    i32 1, label %49
    i32 3, label %52
  ]

49:                                               ; preds = %43
  %50 = load double, ptr %4, align 8, !tbaa !6
  %51 = fadd reassoc nsz arcp contract afn double %50, 1.000000e+00
  store double %51, ptr %8, align 8, !tbaa !6
  br label %66

52:                                               ; preds = %43
  %53 = load double, ptr %4, align 8, !tbaa !6
  %54 = fsub reassoc nsz arcp contract afn double %53, 1.000000e+00
  store double %54, ptr %8, align 8, !tbaa !6
  br label %66

55:                                               ; preds = %43
  br label %56

56:                                               ; preds = %55
  br label %57

57:                                               ; preds = %56, %36, %17
  %58 = load ptr, ptr %7, align 8, !tbaa !14
  %59 = call reassoc nsz arcp contract afn double @_parse_expression(ptr noundef %58)
  store double %59, ptr %8, align 8, !tbaa !6
  %60 = load ptr, ptr %7, align 8, !tbaa !14
  %61 = getelementptr inbounds nuw %struct.parser_state_t, ptr %60, i32 0, i32 2
  %62 = load ptr, ptr %61, align 8, !tbaa !20
  %63 = icmp ne ptr %62, null
  br i1 %63, label %64, label %65

64:                                               ; preds = %57
  store double 0x7FF8000000000000, ptr %8, align 8, !tbaa !6
  br label %65

65:                                               ; preds = %64, %57
  br label %66

66:                                               ; preds = %65, %52, %49
  %67 = load ptr, ptr %7, align 8, !tbaa !14
  %68 = getelementptr inbounds nuw %struct.parser_state_t, ptr %67, i32 0, i32 2
  %69 = load ptr, ptr %68, align 8, !tbaa !20
  call void @free(ptr noundef %69) #6
  %70 = load ptr, ptr %7, align 8, !tbaa !14
  call void @free(ptr noundef %70) #6
  %71 = load ptr, ptr %6, align 8, !tbaa !10
  call void @g_free(ptr noundef %71)
  %72 = load double, ptr %8, align 8, !tbaa !6
  store double %72, ptr %3, align 8
  call void @llvm.lifetime.end.p0(i64 8, ptr %8) #6
  call void @llvm.lifetime.end.p0(i64 8, ptr %7) #6
  call void @llvm.lifetime.end.p0(i64 8, ptr %6) #6
  br label %73

73:                                               ; preds = %66, %16
  %74 = load double, ptr %3, align 8
  ret double %74
}