; Function Attrs: nounwind uwtable
define double @dt_calculator_solve(double noundef %0, ptr noundef %1) local_unnamed_addr #0 {
  %3 = icmp eq ptr %1, null
  br i1 %3, label %46, label %4

4:                                                ; preds = %2
  %5 = load i8, ptr %1, align 1, !tbaa !6
  %6 = icmp eq i8 %5, 0
  br i1 %6, label %46, label %7

7:                                                ; preds = %4
  %8 = tail call noalias ptr @g_strdup(ptr noundef nonnull %1) #5
  %9 = tail call noalias dereferenceable_or_null(24) ptr @malloc(i64 noundef 24) #6
  %10 = tail call ptr @g_strdelimit(ptr noundef %8, ptr noundef nonnull @.str, i8 noundef signext 46) #5
  store ptr %10, ptr %9, align 8, !tbaa !9
  %11 = getelementptr inbounds nuw i8, ptr %9, i64 8
  store double %0, ptr %11, align 8, !tbaa !15
  %12 = tail call fastcc ptr @_get_token(ptr noundef nonnull %9)
  %13 = getelementptr inbounds nuw i8, ptr %9, i64 16
  store ptr %12, ptr %13, align 8, !tbaa !16
  %.not = icmp eq ptr %12, null
  br i1 %.not, label %_parse_expression.exit, label %14

14:                                               ; preds = %7
  %15 = load i32, ptr %12, align 8, !tbaa !17
  %16 = icmp eq i32 %15, 1
  br i1 %16, label %17, label %24

17:                                               ; preds = %14
  %18 = getelementptr inbounds nuw i8, ptr %12, i64 8
  %19 = load i32, ptr %18, align 8, !tbaa !6
  switch i32 %19, label %24 [
    i32 1, label %20
    i32 3, label %22
  ]

20:                                               ; preds = %17
  %21 = fadd reassoc nsz arcp contract afn double %0, 1.000000e+00
  br label %44

22:                                               ; preds = %17
  %23 = fadd reassoc nsz arcp contract afn double %0, -1.000000e+00
  br label %44

24:                                               ; preds = %17, %14
  %25 = tail call reassoc nsz arcp contract afn fastcc double @_parse_multiplicative_expression(ptr noundef nonnull %9)
  %26 = load ptr, ptr %13, align 8, !tbaa !16
  %.not27.i3.i = icmp eq ptr %26, null
  br i1 %.not27.i3.i, label %_parse_expression.exit, label %.lr.ph.i

.lr.ph.i:                                         ; preds = %24, %41
  %27 = phi ptr [ %42, %41 ], [ %26, %24 ]
  %.022.i4.i = phi double [ %.123.i.i, %41 ], [ %25, %24 ]
  %28 = load i32, ptr %27, align 8, !tbaa !17
  %29 = icmp eq i32 %28, 1
  br i1 %29, label %30, label %_parse_expression.exit

30:                                               ; preds = %.lr.ph.i
  %31 = getelementptr inbounds nuw i8, ptr %27, i64 8
  %32 = load i32, ptr %31, align 8, !tbaa !6
  %33 = and i32 %32, -3
  %or.cond.not.i.i = icmp eq i32 %33, 0
  br i1 %or.cond.not.i.i, label %34, label %_parse_expression.exit

34:                                               ; preds = %30
  tail call void @free(ptr noundef nonnull %27) #5
  %35 = tail call fastcc ptr @_get_token(ptr noundef nonnull %9)
  store ptr %35, ptr %13, align 8, !tbaa !16
  %36 = tail call reassoc nsz arcp contract afn fastcc double @_parse_multiplicative_expression(ptr noundef nonnull %9)
  switch i32 %32, label %41 [
    i32 0, label %37
    i32 2, label %39
  ]

37:                                               ; preds = %34
  %38 = fadd reassoc nsz arcp contract afn double %36, %.022.i4.i
  br label %41

39:                                               ; preds = %34
  %40 = fsub reassoc nsz arcp contract afn double %.022.i4.i, %36
  br label %41

41:                                               ; preds = %39, %37, %34
  %.123.i.i = phi nsz double [ %38, %37 ], [ %40, %39 ], [ %.022.i4.i, %34 ]
  %42 = load ptr, ptr %13, align 8, !tbaa !16
  %.not27.i.i = icmp eq ptr %42, null
  br i1 %.not27.i.i, label %_parse_expression.exit, label %.lr.ph.i

_parse_expression.exit:                           ; preds = %.lr.ph.i, %30, %41, %7, %24
  %43 = phi ptr [ null, %24 ], [ null, %7 ], [ %27, %30 ], [ null, %41 ], [ %27, %.lr.ph.i ]
  %.0.i.i = phi nsz double [ %25, %24 ], [ 0x7FF8000000000000, %7 ], [ %.022.i4.i, %30 ], [ %.123.i.i, %41 ], [ %.022.i4.i, %.lr.ph.i ]
  %.not24 = icmp eq ptr %43, null
  %spec.store.select = select i1 %.not24, double %.0.i.i, double 0x7FF8000000000000
  br label %44

44:                                               ; preds = %_parse_expression.exit, %22, %20
  %45 = phi ptr [ %43, %_parse_expression.exit ], [ %12, %22 ], [ %12, %20 ]
  %.0 = phi nsz double [ %spec.store.select, %_parse_expression.exit ], [ %23, %22 ], [ %21, %20 ]
  tail call void @free(ptr noundef %45) #5
  tail call void @free(ptr noundef nonnull %9) #5
  tail call void @g_free(ptr noundef %8) #5
  br label %46

46:                                               ; preds = %2, %4, %44
  %.021 = phi nsz double [ %.0, %44 ], [ 0x7FF8000000000000, %4 ], [ 0x7FF8000000000000, %2 ]
  ret double %.021
}